
chirp2.elf:     file format elf32-avr

Sections:
Idx Name          Size      VMA       LMA       File off  Algn
  0 .text         000006cc  00000000  00000000  00000094  2**1
                  CONTENTS, ALLOC, LOAD, READONLY, CODE
  1 .data         00000002  00800060  000006cc  00000760  2**0
                  CONTENTS, ALLOC, LOAD, DATA
  2 .bss          0000002f  00800062  00800062  00000762  2**0
                  ALLOC
  3 .stab         00000840  00000000  00000000  00000764  2**2
                  CONTENTS, READONLY, DEBUGGING
  4 .stabstr      000000b2  00000000  00000000  00000fa4  2**0
                  CONTENTS, READONLY, DEBUGGING
  5 .comment      00000011  00000000  00000000  00001056  2**0
                  CONTENTS, READONLY

Disassembly of section .text:

00000000 <__vectors>:
   0:	10 c0       	rjmp	.+32     	; 0x22 <__ctors_end>
   2:	2a c0       	rjmp	.+84     	; 0x58 <__bad_interrupt>
   4:	29 c0       	rjmp	.+82     	; 0x58 <__bad_interrupt>
   6:	b3 c0       	rjmp	.+358    	; 0x16e <__vector_3>
   8:	4a c0       	rjmp	.+148    	; 0x9e <__vector_4>
   a:	26 c0       	rjmp	.+76     	; 0x58 <__bad_interrupt>
   c:	25 c0       	rjmp	.+74     	; 0x58 <__bad_interrupt>
   e:	24 c0       	rjmp	.+72     	; 0x58 <__bad_interrupt>
  10:	c6 c0       	rjmp	.+396    	; 0x19e <__vector_8>
  12:	22 c0       	rjmp	.+68     	; 0x58 <__bad_interrupt>
  14:	21 c0       	rjmp	.+66     	; 0x58 <__bad_interrupt>
  16:	20 c0       	rjmp	.+64     	; 0x58 <__bad_interrupt>
  18:	1f c0       	rjmp	.+62     	; 0x58 <__bad_interrupt>
  1a:	4b c0       	rjmp	.+150    	; 0xb2 <__vector_13>
  1c:	1d c0       	rjmp	.+58     	; 0x58 <__bad_interrupt>
  1e:	9a c1       	rjmp	.+820    	; 0x354 <__vector_15>
  20:	b4 c1       	rjmp	.+872    	; 0x38a <__vector_16>

00000022 <__ctors_end>:
  22:	11 24       	eor	r1, r1
  24:	1f be       	out	0x3f, r1	; 63
  26:	cf e5       	ldi	r28, 0x5F	; 95
  28:	d1 e0       	ldi	r29, 0x01	; 1
  2a:	de bf       	out	0x3e, r29	; 62
  2c:	cd bf       	out	0x3d, r28	; 61

0000002e <__do_copy_data>:
  2e:	10 e0       	ldi	r17, 0x00	; 0
  30:	a0 e6       	ldi	r26, 0x60	; 96
  32:	b0 e0       	ldi	r27, 0x00	; 0
  34:	ec ec       	ldi	r30, 0xCC	; 204
  36:	f6 e0       	ldi	r31, 0x06	; 6
  38:	02 c0       	rjmp	.+4      	; 0x3e <__SP_H__>
  3a:	05 90       	lpm	r0, Z+
  3c:	0d 92       	st	X+, r0
  3e:	a2 36       	cpi	r26, 0x62	; 98
  40:	b1 07       	cpc	r27, r17
  42:	d9 f7       	brne	.-10     	; 0x3a <__do_copy_data+0xc>

00000044 <__do_clear_bss>:
  44:	10 e0       	ldi	r17, 0x00	; 0
  46:	a2 e6       	ldi	r26, 0x62	; 98
  48:	b0 e0       	ldi	r27, 0x00	; 0
  4a:	01 c0       	rjmp	.+2      	; 0x4e <.do_clear_bss_start>

0000004c <.do_clear_bss_loop>:
  4c:	1d 92       	st	X+, r1

0000004e <.do_clear_bss_start>:
  4e:	a1 39       	cpi	r26, 0x91	; 145
  50:	b1 07       	cpc	r27, r17
  52:	e1 f7       	brne	.-8      	; 0x4c <.do_clear_bss_loop>
  54:	24 d2       	rcall	.+1096   	; 0x49e <main>
  56:	38 c3       	rjmp	.+1648   	; 0x6c8 <_exit>

00000058 <__bad_interrupt>:
  58:	d3 cf       	rjmp	.-90     	; 0x0 <__vectors>

0000005a <chirp>:
  5a:	02 98       	cbi	0x00, 2	; 0
  5c:	28 e0       	ldi	r18, 0x08	; 8
  5e:	1b c0       	rjmp	.+54     	; 0x96 <chirp+0x3c>
  60:	10 be       	out	0x30, r1	; 48
  62:	13 be       	out	0x33, r1	; 51
  64:	90 b7       	in	r25, 0x30	; 48
  66:	90 62       	ori	r25, 0x20	; 32
  68:	90 bf       	out	0x30, r25	; 48
  6a:	90 b7       	in	r25, 0x30	; 48
  6c:	91 60       	ori	r25, 0x01	; 1
  6e:	90 bf       	out	0x30, r25	; 48
  70:	93 b7       	in	r25, 0x33	; 51
  72:	91 60       	ori	r25, 0x01	; 1
  74:	93 bf       	out	0x33, r25	; 51
  76:	2c bf       	out	0x3c, r18	; 60
  78:	e9 e9       	ldi	r30, 0x99	; 153
  7a:	f0 e1       	ldi	r31, 0x10	; 16
  7c:	31 97       	sbiw	r30, 0x01	; 1
  7e:	f1 f7       	brne	.-4      	; 0x7c <chirp+0x22>
  80:	00 c0       	rjmp	.+0      	; 0x82 <chirp+0x28>
  82:	00 00       	nop
  84:	13 be       	out	0x33, r1	; 51
  86:	df 98       	cbi	0x1b, 7	; 27
  88:	e7 e8       	ldi	r30, 0x87	; 135
  8a:	f3 e1       	ldi	r31, 0x13	; 19
  8c:	31 97       	sbiw	r30, 0x01	; 1
  8e:	f1 f7       	brne	.-4      	; 0x8c <chirp+0x32>
  90:	00 c0       	rjmp	.+0      	; 0x92 <chirp+0x38>
  92:	00 00       	nop
  94:	81 50       	subi	r24, 0x01	; 1
  96:	81 11       	cpse	r24, r1
  98:	e3 cf       	rjmp	.-58     	; 0x60 <chirp+0x6>
  9a:	02 9a       	sbi	0x00, 2	; 0
  9c:	08 95       	ret

0000009e <__vector_4>:
  9e:	1f 92       	push	r1
  a0:	0f 92       	push	r0
  a2:	0f b6       	in	r0, 0x3f	; 63
  a4:	0f 92       	push	r0
  a6:	11 24       	eor	r1, r1
  a8:	0f 90       	pop	r0
  aa:	0f be       	out	0x3f, r0	; 63
  ac:	0f 90       	pop	r0
  ae:	1f 90       	pop	r1
  b0:	18 95       	reti

000000b2 <__vector_13>:
  b2:	1f 92       	push	r1
  b4:	0f 92       	push	r0
  b6:	0f b6       	in	r0, 0x3f	; 63
  b8:	0f 92       	push	r0
  ba:	11 24       	eor	r1, r1
  bc:	0f 90       	pop	r0
  be:	0f be       	out	0x3f, r0	; 63
  c0:	0f 90       	pop	r0
  c2:	1f 90       	pop	r1
  c4:	18 95       	reti

000000c6 <getCapacitance>:
  c6:	32 9a       	sbi	0x06, 2	; 6
  c8:	33 9a       	sbi	0x06, 3	; 6
  ca:	38 9a       	sbi	0x07, 0	; 7
  cc:	36 9a       	sbi	0x06, 6	; 6
  ce:	85 b7       	in	r24, 0x35	; 53
  d0:	87 7e       	andi	r24, 0xE7	; 231
  d2:	88 60       	ori	r24, 0x08	; 8
  d4:	85 bf       	out	0x35, r24	; 53
  d6:	85 b7       	in	r24, 0x35	; 53
  d8:	80 62       	ori	r24, 0x20	; 32
  da:	85 bf       	out	0x35, r24	; 53
  dc:	88 95       	sleep
  de:	85 b7       	in	r24, 0x35	; 53
  e0:	8f 7d       	andi	r24, 0xDF	; 223
  e2:	85 bf       	out	0x35, r24	; 53
  e4:	24 b1       	in	r18, 0x04	; 4
  e6:	35 b1       	in	r19, 0x05	; 5
  e8:	93 2f       	mov	r25, r19
  ea:	80 e0       	ldi	r24, 0x00	; 0
  ec:	82 2b       	or	r24, r18
  ee:	2f ef       	ldi	r18, 0xFF	; 255
  f0:	33 e0       	ldi	r19, 0x03	; 3
  f2:	28 1b       	sub	r18, r24
  f4:	39 0b       	sbc	r19, r25
  f6:	c9 01       	movw	r24, r18
  f8:	08 95       	ret

000000fa <startExcitationSignal>:
  fa:	16 be       	out	0x36, r1	; 54
  fc:	82 e4       	ldi	r24, 0x42	; 66
  fe:	80 bf       	out	0x30, r24	; 48
 100:	81 e0       	ldi	r24, 0x01	; 1
 102:	83 bf       	out	0x33, r24	; 51
 104:	08 95       	ret

00000106 <stopExcitationSignal>:
 106:	13 be       	out	0x33, r1	; 51
 108:	10 be       	out	0x30, r1	; 48
 10a:	08 95       	ret

0000010c <getCapacitanceRounded>:
 10c:	1f 93       	push	r17
 10e:	cf 93       	push	r28
 110:	df 93       	push	r29
 112:	00 d0       	rcall	.+0      	; 0x114 <getCapacitanceRounded+0x8>
 114:	cd b7       	in	r28, 0x3d	; 61
 116:	de b7       	in	r29, 0x3e	; 62
 118:	10 e8       	ldi	r17, 0x80	; 128
 11a:	16 bd       	out	0x26, r17	; 38
 11c:	82 e0       	ldi	r24, 0x02	; 2
 11e:	86 bd       	out	0x26, r24	; 38
 120:	00 98       	cbi	0x00, 0	; 0
 122:	37 9a       	sbi	0x06, 7	; 6
 124:	02 98       	cbi	0x00, 2	; 0
 126:	e9 df       	rcall	.-46     	; 0xfa <startExcitationSignal>
 128:	89 ef       	ldi	r24, 0xF9	; 249
 12a:	90 e0       	ldi	r25, 0x00	; 0
 12c:	01 97       	sbiw	r24, 0x01	; 1
 12e:	f1 f7       	brne	.-4      	; 0x12c <getCapacitanceRounded+0x20>
 130:	00 c0       	rjmp	.+0      	; 0x132 <getCapacitanceRounded+0x26>
 132:	00 00       	nop
 134:	c8 df       	rcall	.-112    	; 0xc6 <getCapacitance>
 136:	9f e3       	ldi	r25, 0x3F	; 63
 138:	ed e0       	ldi	r30, 0x0D	; 13
 13a:	f3 e0       	ldi	r31, 0x03	; 3
 13c:	91 50       	subi	r25, 0x01	; 1
 13e:	e0 40       	sbci	r30, 0x00	; 0
 140:	f0 40       	sbci	r31, 0x00	; 0
 142:	e1 f7       	brne	.-8      	; 0x13c <getCapacitanceRounded+0x30>
 144:	00 c0       	rjmp	.+0      	; 0x146 <getCapacitanceRounded+0x3a>
 146:	00 00       	nop
 148:	be df       	rcall	.-132    	; 0xc6 <getCapacitance>
 14a:	89 83       	std	Y+1, r24	; 0x01
 14c:	9a 83       	std	Y+2, r25	; 0x02
 14e:	db df       	rcall	.-74     	; 0x106 <stopExcitationSignal>
 150:	c2 98       	cbi	0x18, 2	; 24
 152:	02 9a       	sbi	0x00, 2	; 0
 154:	37 98       	cbi	0x06, 7	; 6
 156:	00 9a       	sbi	0x00, 0	; 0
 158:	16 bd       	out	0x26, r17	; 38
 15a:	23 e0       	ldi	r18, 0x03	; 3
 15c:	26 bd       	out	0x26, r18	; 38
 15e:	89 81       	ldd	r24, Y+1	; 0x01
 160:	9a 81       	ldd	r25, Y+2	; 0x02
 162:	0f 90       	pop	r0
 164:	0f 90       	pop	r0
 166:	df 91       	pop	r29
 168:	cf 91       	pop	r28
 16a:	1f 91       	pop	r17
 16c:	08 95       	ret

0000016e <__vector_3>:
 16e:	1f 92       	push	r1
 170:	0f 92       	push	r0
 172:	0f b6       	in	r0, 0x3f	; 63
 174:	0f 92       	push	r0
 176:	11 24       	eor	r1, r1
 178:	8f 93       	push	r24
 17a:	9f 93       	push	r25
 17c:	1e bc       	out	0x2e, r1	; 46
 17e:	8c b5       	in	r24, 0x2c	; 44
 180:	9d b5       	in	r25, 0x2d	; 45
 182:	90 93 64 00 	sts	0x0064, r25
 186:	80 93 63 00 	sts	0x0063, r24
 18a:	81 e0       	ldi	r24, 0x01	; 1
 18c:	80 93 62 00 	sts	0x0062, r24
 190:	9f 91       	pop	r25
 192:	8f 91       	pop	r24
 194:	0f 90       	pop	r0
 196:	0f be       	out	0x3f, r0	; 63
 198:	0f 90       	pop	r0
 19a:	1f 90       	pop	r1
 19c:	18 95       	reti

0000019e <__vector_8>:
 19e:	1f 92       	push	r1
 1a0:	0f 92       	push	r0
 1a2:	0f b6       	in	r0, 0x3f	; 63
 1a4:	0f 92       	push	r0
 1a6:	11 24       	eor	r1, r1
 1a8:	8f 93       	push	r24
 1aa:	9f 93       	push	r25
 1ac:	8f ef       	ldi	r24, 0xFF	; 255
 1ae:	9f ef       	ldi	r25, 0xFF	; 255
 1b0:	90 93 64 00 	sts	0x0064, r25
 1b4:	80 93 63 00 	sts	0x0063, r24
 1b8:	81 e0       	ldi	r24, 0x01	; 1
 1ba:	80 93 62 00 	sts	0x0062, r24
 1be:	9f 91       	pop	r25
 1c0:	8f 91       	pop	r24
 1c2:	0f 90       	pop	r0
 1c4:	0f be       	out	0x3f, r0	; 63
 1c6:	0f 90       	pop	r0
 1c8:	1f 90       	pop	r1
 1ca:	18 95       	reti

000001cc <getLight>:
 1cc:	03 98       	cbi	0x00, 3	; 0
 1ce:	60 9a       	sbi	0x0c, 0	; 12
 1d0:	87 b3       	in	r24, 0x17	; 23
 1d2:	83 60       	ori	r24, 0x03	; 3
 1d4:	87 bb       	out	0x17, r24	; 23
 1d6:	c0 98       	cbi	0x18, 0	; 24
 1d8:	c1 9a       	sbi	0x18, 1	; 24
 1da:	c0 9a       	sbi	0x18, 0	; 24
 1dc:	c1 98       	cbi	0x18, 1	; 24
 1de:	87 b3       	in	r24, 0x17	; 23
 1e0:	8c 7f       	andi	r24, 0xFC	; 252
 1e2:	87 bb       	out	0x17, r24	; 23
 1e4:	88 b3       	in	r24, 0x18	; 24
 1e6:	8c 7f       	andi	r24, 0xFC	; 252
 1e8:	88 bb       	out	0x18, r24	; 24
 1ea:	1d bc       	out	0x2d, r1	; 45
 1ec:	1c bc       	out	0x2c, r1	; 44
 1ee:	1f bc       	out	0x2f, r1	; 47
 1f0:	83 e0       	ldi	r24, 0x03	; 3
 1f2:	8e bd       	out	0x2e, r24	; 46
 1f4:	80 b5       	in	r24, 0x20	; 32
 1f6:	81 60       	ori	r24, 0x01	; 1
 1f8:	80 bd       	out	0x20, r24	; 32
 1fa:	8b b7       	in	r24, 0x3b	; 59
 1fc:	80 62       	ori	r24, 0x20	; 32
 1fe:	8b bf       	out	0x3b, r24	; 59
 200:	10 92 62 00 	sts	0x0062, r1
 204:	0a c0       	rjmp	.+20     	; 0x21a <getLight+0x4e>
 206:	85 b7       	in	r24, 0x35	; 53
 208:	87 7e       	andi	r24, 0xE7	; 231
 20a:	85 bf       	out	0x35, r24	; 53
 20c:	85 b7       	in	r24, 0x35	; 53
 20e:	80 62       	ori	r24, 0x20	; 32
 210:	85 bf       	out	0x35, r24	; 53
 212:	88 95       	sleep
 214:	85 b7       	in	r24, 0x35	; 53
 216:	8f 7d       	andi	r24, 0xDF	; 223
 218:	85 bf       	out	0x35, r24	; 53
 21a:	80 91 62 00 	lds	r24, 0x0062
 21e:	88 23       	and	r24, r24
 220:	91 f3       	breq	.-28     	; 0x206 <getLight+0x3a>
 222:	1e bc       	out	0x2e, r1	; 46
 224:	8b b7       	in	r24, 0x3b	; 59
 226:	8f 7d       	andi	r24, 0xDF	; 223
 228:	8b bf       	out	0x3b, r24	; 59
 22a:	80 b5       	in	r24, 0x20	; 32
 22c:	8e 7f       	andi	r24, 0xFE	; 254
 22e:	80 bd       	out	0x20, r24	; 32
 230:	60 98       	cbi	0x0c, 0	; 12
 232:	03 9a       	sbi	0x00, 3	; 0
 234:	20 91 63 00 	lds	r18, 0x0063
 238:	30 91 64 00 	lds	r19, 0x0064
 23c:	c9 01       	movw	r24, r18
 23e:	08 95       	ret

00000240 <loopSensorMode>:
 240:	00 98       	cbi	0x00, 0	; 0
 242:	84 e8       	ldi	r24, 0x84	; 132
 244:	86 b9       	out	0x06, r24	; 6
 246:	38 9a       	sbi	0x07, 0	; 7
 248:	02 98       	cbi	0x00, 2	; 0
 24a:	80 e8       	ldi	r24, 0x80	; 128
 24c:	86 bd       	out	0x26, r24	; 38
 24e:	82 e0       	ldi	r24, 0x02	; 2
 250:	86 bd       	out	0x26, r24	; 38
 252:	53 df       	rcall	.-346    	; 0xfa <startExcitationSignal>
 254:	2f e9       	ldi	r18, 0x9F	; 159
 256:	86 e8       	ldi	r24, 0x86	; 134
 258:	91 e0       	ldi	r25, 0x01	; 1
 25a:	21 50       	subi	r18, 0x01	; 1
 25c:	80 40       	sbci	r24, 0x00	; 0
 25e:	90 40       	sbci	r25, 0x00	; 0
 260:	e1 f7       	brne	.-8      	; 0x25a <loopSensorMode+0x1a>
 262:	00 c0       	rjmp	.+0      	; 0x264 <loopSensorMode+0x24>
 264:	00 00       	nop
 266:	63 d0       	rcall	.+198    	; 0x32e <usiTwiDataInReceiveBuffer>
 268:	88 23       	and	r24, r24
 26a:	e9 f3       	breq	.-6      	; 0x266 <loopSensorMode+0x26>
 26c:	87 b3       	in	r24, 0x17	; 23
 26e:	83 60       	ori	r24, 0x03	; 3
 270:	87 bb       	out	0x17, r24	; 23
 272:	c0 98       	cbi	0x18, 0	; 24
 274:	c1 9a       	sbi	0x18, 1	; 24
 276:	48 d0       	rcall	.+144    	; 0x308 <usiTwiReceiveByte>
 278:	81 11       	cpse	r24, r1
 27a:	06 c0       	rjmp	.+12     	; 0x288 <loopSensorMode+0x48>
 27c:	24 df       	rcall	.-440    	; 0xc6 <getCapacitance>
 27e:	c8 2f       	mov	r28, r24
 280:	89 2f       	mov	r24, r25
 282:	32 d0       	rcall	.+100    	; 0x2e8 <usiTwiTransmitByte>
 284:	8c 2f       	mov	r24, r28
 286:	11 c0       	rjmp	.+34     	; 0x2aa <loopSensorMode+0x6a>
 288:	81 30       	cpi	r24, 0x01	; 1
 28a:	51 f4       	brne	.+20     	; 0x2a0 <loopSensorMode+0x60>
 28c:	3d d0       	rcall	.+122    	; 0x308 <usiTwiReceiveByte>
 28e:	98 2f       	mov	r25, r24
 290:	91 50       	subi	r25, 0x01	; 1
 292:	9e 3f       	cpi	r25, 0xFE	; 254
 294:	58 f4       	brcc	.+22     	; 0x2ac <loopSensorMode+0x6c>
 296:	68 2f       	mov	r22, r24
 298:	81 e0       	ldi	r24, 0x01	; 1
 29a:	90 e0       	ldi	r25, 0x00	; 0
 29c:	07 d2       	rcall	.+1038   	; 0x6ac <__eewr_byte_tn44>
 29e:	06 c0       	rjmp	.+12     	; 0x2ac <loopSensorMode+0x6c>
 2a0:	82 30       	cpi	r24, 0x02	; 2
 2a2:	21 f4       	brne	.+8      	; 0x2ac <loopSensorMode+0x6c>
 2a4:	81 e0       	ldi	r24, 0x01	; 1
 2a6:	90 e0       	ldi	r25, 0x00	; 0
 2a8:	f9 d1       	rcall	.+1010   	; 0x69c <__eerd_byte_tn44>
 2aa:	1e d0       	rcall	.+60     	; 0x2e8 <usiTwiTransmitByte>
 2ac:	87 b3       	in	r24, 0x17	; 23
 2ae:	8c 7f       	andi	r24, 0xFC	; 252
 2b0:	87 bb       	out	0x17, r24	; 23
 2b2:	88 b3       	in	r24, 0x18	; 24
 2b4:	8c 7f       	andi	r24, 0xFC	; 252
 2b6:	88 bb       	out	0x18, r24	; 24
 2b8:	d6 cf       	rjmp	.-84     	; 0x266 <loopSensorMode+0x26>

000002ba <usiTwiSlaveInit>:
 2ba:	10 92 67 00 	sts	0x0067, r1
 2be:	10 92 68 00 	sts	0x0068, r1
 2c2:	10 92 65 00 	sts	0x0065, r1
 2c6:	10 92 66 00 	sts	0x0066, r1
 2ca:	80 93 6b 00 	sts	0x006B, r24
 2ce:	10 92 69 00 	sts	0x0069, r1
 2d2:	8a b3       	in	r24, 0x1a	; 26
 2d4:	80 65       	ori	r24, 0x50	; 80
 2d6:	8a bb       	out	0x1a, r24	; 26
 2d8:	dc 9a       	sbi	0x1b, 4	; 27
 2da:	de 9a       	sbi	0x1b, 6	; 27
 2dc:	d6 98       	cbi	0x1a, 6	; 26
 2de:	88 ea       	ldi	r24, 0xA8	; 168
 2e0:	8d b9       	out	0x0d, r24	; 13
 2e2:	80 ef       	ldi	r24, 0xF0	; 240
 2e4:	8e b9       	out	0x0e, r24	; 14
 2e6:	08 95       	ret

000002e8 <usiTwiTransmitByte>:
 2e8:	90 91 66 00 	lds	r25, 0x0066
 2ec:	9f 5f       	subi	r25, 0xFF	; 255
 2ee:	9f 70       	andi	r25, 0x0F	; 15
 2f0:	20 91 65 00 	lds	r18, 0x0065
 2f4:	92 17       	cp	r25, r18
 2f6:	e1 f3       	breq	.-8      	; 0x2f0 <usiTwiTransmitByte+0x8>
 2f8:	e9 2f       	mov	r30, r25
 2fa:	f0 e0       	ldi	r31, 0x00	; 0
 2fc:	e4 59       	subi	r30, 0x94	; 148
 2fe:	ff 4f       	sbci	r31, 0xFF	; 255
 300:	80 83       	st	Z, r24
 302:	90 93 66 00 	sts	0x0066, r25
 306:	08 95       	ret

00000308 <usiTwiReceiveByte>:
 308:	90 91 68 00 	lds	r25, 0x0068
 30c:	80 91 67 00 	lds	r24, 0x0067
 310:	98 17       	cp	r25, r24
 312:	d1 f3       	breq	.-12     	; 0x308 <usiTwiReceiveByte>
 314:	80 91 67 00 	lds	r24, 0x0067
 318:	8f 5f       	subi	r24, 0xFF	; 255
 31a:	8f 70       	andi	r24, 0x0F	; 15
 31c:	80 93 67 00 	sts	0x0067, r24
 320:	e0 91 67 00 	lds	r30, 0x0067
 324:	f0 e0       	ldi	r31, 0x00	; 0
 326:	e4 58       	subi	r30, 0x84	; 132
 328:	ff 4f       	sbci	r31, 0xFF	; 255
 32a:	80 81       	ld	r24, Z
 32c:	08 95       	ret

0000032e <usiTwiDataInReceiveBuffer>:
 32e:	20 91 68 00 	lds	r18, 0x0068
 332:	90 91 67 00 	lds	r25, 0x0067
 336:	81 e0       	ldi	r24, 0x01	; 1
 338:	29 13       	cpse	r18, r25
 33a:	01 c0       	rjmp	.+2      	; 0x33e <usiTwiDataInReceiveBuffer+0x10>
 33c:	80 e0       	ldi	r24, 0x00	; 0
 33e:	08 95       	ret

00000340 <usiTwiOnStart>:
 340:	90 93 8d 00 	sts	0x008D, r25
 344:	80 93 8c 00 	sts	0x008C, r24
 348:	08 95       	ret

0000034a <usiTwiOnStop>:
 34a:	90 93 8f 00 	sts	0x008F, r25
 34e:	80 93 8e 00 	sts	0x008E, r24
 352:	08 95       	ret

00000354 <__vector_15>:
 354:	1f 92       	push	r1
 356:	0f 92       	push	r0
 358:	0f b6       	in	r0, 0x3f	; 63
 35a:	0f 92       	push	r0
 35c:	11 24       	eor	r1, r1
 35e:	8f 93       	push	r24
 360:	10 92 6a 00 	sts	0x006A, r1
 364:	d6 98       	cbi	0x1a, 6	; 26
 366:	cc 9b       	sbis	0x19, 4	; 25
 368:	02 c0       	rjmp	.+4      	; 0x36e <__vector_15+0x1a>
 36a:	ce 9b       	sbis	0x19, 6	; 25
 36c:	fc cf       	rjmp	.-8      	; 0x366 <__vector_15+0x12>
 36e:	ce 99       	sbic	0x19, 6	; 25
 370:	02 c0       	rjmp	.+4      	; 0x376 <__vector_15+0x22>
 372:	88 ef       	ldi	r24, 0xF8	; 248
 374:	01 c0       	rjmp	.+2      	; 0x378 <__vector_15+0x24>
 376:	88 ea       	ldi	r24, 0xA8	; 168
 378:	8d b9       	out	0x0d, r24	; 13
 37a:	80 ef       	ldi	r24, 0xF0	; 240
 37c:	8e b9       	out	0x0e, r24	; 14
 37e:	8f 91       	pop	r24
 380:	0f 90       	pop	r0
 382:	0f be       	out	0x3f, r0	; 63
 384:	0f 90       	pop	r0
 386:	1f 90       	pop	r1
 388:	18 95       	reti

0000038a <__vector_16>:
 38a:	1f 92       	push	r1
 38c:	0f 92       	push	r0
 38e:	0f b6       	in	r0, 0x3f	; 63
 390:	0f 92       	push	r0
 392:	11 24       	eor	r1, r1
 394:	2f 93       	push	r18
 396:	3f 93       	push	r19
 398:	4f 93       	push	r20
 39a:	5f 93       	push	r21
 39c:	6f 93       	push	r22
 39e:	7f 93       	push	r23
 3a0:	8f 93       	push	r24
 3a2:	9f 93       	push	r25
 3a4:	af 93       	push	r26
 3a6:	bf 93       	push	r27
 3a8:	ef 93       	push	r30
 3aa:	ff 93       	push	r31
 3ac:	80 91 6a 00 	lds	r24, 0x006A
 3b0:	82 30       	cpi	r24, 0x02	; 2
 3b2:	09 f4       	brne	.+2      	; 0x3b6 <__vector_16+0x2c>
 3b4:	44 c0       	rjmp	.+136    	; 0x43e <__vector_16+0xb4>
 3b6:	30 f4       	brcc	.+12     	; 0x3c4 <__vector_16+0x3a>
 3b8:	88 23       	and	r24, r24
 3ba:	61 f0       	breq	.+24     	; 0x3d4 <__vector_16+0x4a>
 3bc:	81 30       	cpi	r24, 0x01	; 1
 3be:	09 f0       	breq	.+2      	; 0x3c2 <__vector_16+0x38>
 3c0:	5d c0       	rjmp	.+186    	; 0x47c <__vector_16+0xf2>
 3c2:	22 c0       	rjmp	.+68     	; 0x408 <__vector_16+0x7e>
 3c4:	84 30       	cpi	r24, 0x04	; 4
 3c6:	09 f4       	brne	.+2      	; 0x3ca <__vector_16+0x40>
 3c8:	40 c0       	rjmp	.+128    	; 0x44a <__vector_16+0xc0>
 3ca:	c0 f0       	brcs	.+48     	; 0x3fc <__vector_16+0x72>
 3cc:	85 30       	cpi	r24, 0x05	; 5
 3ce:	09 f0       	breq	.+2      	; 0x3d2 <__vector_16+0x48>
 3d0:	55 c0       	rjmp	.+170    	; 0x47c <__vector_16+0xf2>
 3d2:	40 c0       	rjmp	.+128    	; 0x454 <__vector_16+0xca>
 3d4:	8f b1       	in	r24, 0x0f	; 15
 3d6:	88 23       	and	r24, r24
 3d8:	31 f0       	breq	.+12     	; 0x3e6 <__vector_16+0x5c>
 3da:	8f b1       	in	r24, 0x0f	; 15
 3dc:	86 95       	lsr	r24
 3de:	90 91 6b 00 	lds	r25, 0x006B
 3e2:	89 13       	cpse	r24, r25
 3e4:	0e c0       	rjmp	.+28     	; 0x402 <__vector_16+0x78>
 3e6:	e0 91 8c 00 	lds	r30, 0x008C
 3ea:	f0 91 8d 00 	lds	r31, 0x008D
 3ee:	30 97       	sbiw	r30, 0x00	; 0
 3f0:	09 f0       	breq	.+2      	; 0x3f4 <__vector_16+0x6a>
 3f2:	09 95       	icall
 3f4:	78 9b       	sbis	0x0f, 0	; 15
 3f6:	3b c0       	rjmp	.+118    	; 0x46e <__vector_16+0xe4>
 3f8:	81 e0       	ldi	r24, 0x01	; 1
 3fa:	3a c0       	rjmp	.+116    	; 0x470 <__vector_16+0xe6>
 3fc:	8f b1       	in	r24, 0x0f	; 15
 3fe:	88 23       	and	r24, r24
 400:	19 f0       	breq	.+6      	; 0x408 <__vector_16+0x7e>
 402:	88 ea       	ldi	r24, 0xA8	; 168
 404:	8d b9       	out	0x0d, r24	; 13
 406:	19 c0       	rjmp	.+50     	; 0x43a <__vector_16+0xb0>
 408:	90 91 66 00 	lds	r25, 0x0066
 40c:	80 91 65 00 	lds	r24, 0x0065
 410:	98 17       	cp	r25, r24
 412:	69 f0       	breq	.+26     	; 0x42e <__vector_16+0xa4>
 414:	80 91 65 00 	lds	r24, 0x0065
 418:	8f 5f       	subi	r24, 0xFF	; 255
 41a:	8f 70       	andi	r24, 0x0F	; 15
 41c:	80 93 65 00 	sts	0x0065, r24
 420:	e0 91 65 00 	lds	r30, 0x0065
 424:	f0 e0       	ldi	r31, 0x00	; 0
 426:	e4 59       	subi	r30, 0x94	; 148
 428:	ff 4f       	sbci	r31, 0xFF	; 255
 42a:	80 81       	ld	r24, Z
 42c:	01 c0       	rjmp	.+2      	; 0x430 <__vector_16+0xa6>
 42e:	8f ef       	ldi	r24, 0xFF	; 255
 430:	8f b9       	out	0x0f, r24	; 15
 432:	82 e0       	ldi	r24, 0x02	; 2
 434:	80 93 6a 00 	sts	0x006A, r24
 438:	d6 9a       	sbi	0x1a, 6	; 26
 43a:	80 e7       	ldi	r24, 0x70	; 112
 43c:	1e c0       	rjmp	.+60     	; 0x47a <__vector_16+0xf0>
 43e:	83 e0       	ldi	r24, 0x03	; 3
 440:	80 93 6a 00 	sts	0x006A, r24
 444:	d6 98       	cbi	0x1a, 6	; 26
 446:	1f b8       	out	0x0f, r1	; 15
 448:	17 c0       	rjmp	.+46     	; 0x478 <__vector_16+0xee>
 44a:	85 e0       	ldi	r24, 0x05	; 5
 44c:	80 93 6a 00 	sts	0x006A, r24
 450:	d6 98       	cbi	0x1a, 6	; 26
 452:	f3 cf       	rjmp	.-26     	; 0x43a <__vector_16+0xb0>
 454:	80 91 68 00 	lds	r24, 0x0068
 458:	8f 5f       	subi	r24, 0xFF	; 255
 45a:	8f 70       	andi	r24, 0x0F	; 15
 45c:	80 93 68 00 	sts	0x0068, r24
 460:	e0 91 68 00 	lds	r30, 0x0068
 464:	8f b1       	in	r24, 0x0f	; 15
 466:	f0 e0       	ldi	r31, 0x00	; 0
 468:	e4 58       	subi	r30, 0x84	; 132
 46a:	ff 4f       	sbci	r31, 0xFF	; 255
 46c:	80 83       	st	Z, r24
 46e:	84 e0       	ldi	r24, 0x04	; 4
 470:	80 93 6a 00 	sts	0x006A, r24
 474:	1f b8       	out	0x0f, r1	; 15
 476:	d6 9a       	sbi	0x1a, 6	; 26
 478:	8e e7       	ldi	r24, 0x7E	; 126
 47a:	8e b9       	out	0x0e, r24	; 14
 47c:	ff 91       	pop	r31
 47e:	ef 91       	pop	r30
 480:	bf 91       	pop	r27
 482:	af 91       	pop	r26
 484:	9f 91       	pop	r25
 486:	8f 91       	pop	r24
 488:	7f 91       	pop	r23
 48a:	6f 91       	pop	r22
 48c:	5f 91       	pop	r21
 48e:	4f 91       	pop	r20
 490:	3f 91       	pop	r19
 492:	2f 91       	pop	r18
 494:	0f 90       	pop	r0
 496:	0f be       	out	0x3f, r0	; 63
 498:	0f 90       	pop	r0
 49a:	1f 90       	pop	r1
 49c:	18 95       	reti

0000049e <main>:
 49e:	cf 93       	push	r28
 4a0:	df 93       	push	r29
 4a2:	1f 92       	push	r1
 4a4:	cd b7       	in	r28, 0x3d	; 61
 4a6:	de b7       	in	r29, 0x3e	; 62
 4a8:	d8 9a       	sbi	0x1b, 0	; 27
 4aa:	d8 98       	cbi	0x1b, 0	; 27
 4ac:	da 9a       	sbi	0x1b, 2	; 27
 4ae:	da 98       	cbi	0x1b, 2	; 27
 4b0:	db 9a       	sbi	0x1b, 3	; 27
 4b2:	db 98       	cbi	0x1b, 3	; 27
 4b4:	d7 9a       	sbi	0x1a, 7	; 26
 4b6:	df 98       	cbi	0x1b, 7	; 27
 4b8:	b8 9a       	sbi	0x17, 0	; 23
 4ba:	c0 98       	cbi	0x18, 0	; 24
 4bc:	b9 9a       	sbi	0x17, 1	; 23
 4be:	c1 98       	cbi	0x18, 1	; 24
 4c0:	ba 9a       	sbi	0x17, 2	; 23
 4c2:	c2 98       	cbi	0x18, 2	; 24
 4c4:	81 e0       	ldi	r24, 0x01	; 1
 4c6:	90 e0       	ldi	r25, 0x00	; 0
 4c8:	e9 d0       	rcall	.+466    	; 0x69c <__eerd_byte_tn44>
 4ca:	98 2f       	mov	r25, r24
 4cc:	91 50       	subi	r25, 0x01	; 1
 4ce:	9e 3f       	cpi	r25, 0xFE	; 254
 4d0:	08 f0       	brcs	.+2      	; 0x4d4 <main+0x36>
 4d2:	80 e2       	ldi	r24, 0x20	; 32
 4d4:	78 94       	sei
 4d6:	f1 de       	rcall	.-542    	; 0x2ba <usiTwiSlaveInit>
 4d8:	80 e8       	ldi	r24, 0x80	; 128
 4da:	86 bd       	out	0x26, r24	; 38
 4dc:	83 e0       	ldi	r24, 0x03	; 3
 4de:	86 bd       	out	0x26, r24	; 38
 4e0:	78 94       	sei
 4e2:	82 e0       	ldi	r24, 0x02	; 2
 4e4:	ba dd       	rcall	.-1164   	; 0x5a <chirp>
 4e6:	87 b3       	in	r24, 0x17	; 23
 4e8:	83 60       	ori	r24, 0x03	; 3
 4ea:	87 bb       	out	0x17, r24	; 23
 4ec:	c0 98       	cbi	0x18, 0	; 24
 4ee:	c1 9a       	sbi	0x18, 1	; 24
 4f0:	83 ec       	ldi	r24, 0xC3	; 195
 4f2:	99 e0       	ldi	r25, 0x09	; 9
 4f4:	01 97       	sbiw	r24, 0x01	; 1
 4f6:	f1 f7       	brne	.-4      	; 0x4f4 <main+0x56>
 4f8:	00 c0       	rjmp	.+0      	; 0x4fa <main+0x5c>
 4fa:	00 00       	nop
 4fc:	87 b3       	in	r24, 0x17	; 23
 4fe:	8c 7f       	andi	r24, 0xFC	; 252
 500:	87 bb       	out	0x17, r24	; 23
 502:	88 b3       	in	r24, 0x18	; 24
 504:	8c 7f       	andi	r24, 0xFC	; 252
 506:	88 bb       	out	0x18, r24	; 24
 508:	9f e9       	ldi	r25, 0x9F	; 159
 50a:	e6 e8       	ldi	r30, 0x86	; 134
 50c:	f1 e0       	ldi	r31, 0x01	; 1
 50e:	91 50       	subi	r25, 0x01	; 1
 510:	e0 40       	sbci	r30, 0x00	; 0
 512:	f0 40       	sbci	r31, 0x00	; 0
 514:	e1 f7       	brne	.-8      	; 0x50e <main+0x70>
 516:	00 c0       	rjmp	.+0      	; 0x518 <main+0x7a>
 518:	00 00       	nop
 51a:	58 de       	rcall	.-848    	; 0x1cc <getLight>
 51c:	82 e0       	ldi	r24, 0x02	; 2
 51e:	9d dd       	rcall	.-1222   	; 0x5a <chirp>
 520:	06 df       	rcall	.-500    	; 0x32e <usiTwiDataInReceiveBuffer>
 522:	81 11       	cpse	r24, r1
 524:	8d de       	rcall	.-742    	; 0x240 <loopSensorMode>
 526:	f2 dd       	rcall	.-1052   	; 0x10c <getCapacitanceRounded>
 528:	90 93 61 00 	sts	0x0061, r25
 52c:	80 93 60 00 	sts	0x0060, r24
 530:	1d b8       	out	0x0d, r1	; 13
 532:	09 9a       	sbi	0x01, 1	; 1
 534:	03 9a       	sbi	0x00, 3	; 0
 536:	02 9a       	sbi	0x00, 2	; 0
 538:	37 98       	cbi	0x06, 7	; 6
 53a:	00 9a       	sbi	0x00, 0	; 0
 53c:	01 9a       	sbi	0x00, 1	; 0
 53e:	81 b5       	in	r24, 0x21	; 33
 540:	80 61       	ori	r24, 0x10	; 16
 542:	81 bd       	out	0x21, r24	; 33
 544:	81 b5       	in	r24, 0x21	; 33
 546:	87 7f       	andi	r24, 0xF7	; 247
 548:	81 bd       	out	0x21, r24	; 33
 54a:	81 b5       	in	r24, 0x21	; 33
 54c:	80 64       	ori	r24, 0x40	; 64
 54e:	81 bd       	out	0x21, r24	; 33
 550:	81 b5       	in	r24, 0x21	; 33
 552:	86 60       	ori	r24, 0x06	; 6
 554:	81 bd       	out	0x21, r24	; 33
 556:	00 e0       	ldi	r16, 0x00	; 0
 558:	9d c0       	rjmp	.+314    	; 0x694 <main+0x1f6>
 55a:	01 ee       	ldi	r16, 0xE1	; 225
 55c:	04 c0       	rjmp	.+8      	; 0x566 <main+0xc8>
 55e:	05 e2       	ldi	r16, 0x25	; 37
 560:	01 c0       	rjmp	.+2      	; 0x564 <main+0xc6>
 562:	01 e0       	ldi	r16, 0x01	; 1
 564:	10 e0       	ldi	r17, 0x00	; 0
 566:	80 e0       	ldi	r24, 0x00	; 0
 568:	80 17       	cp	r24, r16
 56a:	98 f4       	brcc	.+38     	; 0x592 <main+0xf4>
 56c:	95 b7       	in	r25, 0x35	; 53
 56e:	97 7e       	andi	r25, 0xE7	; 231
 570:	90 61       	ori	r25, 0x10	; 16
 572:	95 bf       	out	0x35, r25	; 53
 574:	95 b7       	in	r25, 0x35	; 53
 576:	90 62       	ori	r25, 0x20	; 32
 578:	95 bf       	out	0x35, r25	; 53
 57a:	95 b7       	in	r25, 0x35	; 53
 57c:	94 68       	ori	r25, 0x84	; 132
 57e:	95 bf       	out	0x35, r25	; 53
 580:	95 b7       	in	r25, 0x35	; 53
 582:	9b 7f       	andi	r25, 0xFB	; 251
 584:	95 bf       	out	0x35, r25	; 53
 586:	88 95       	sleep
 588:	95 b7       	in	r25, 0x35	; 53
 58a:	9f 7d       	andi	r25, 0xDF	; 223
 58c:	95 bf       	out	0x35, r25	; 53
 58e:	8f 5f       	subi	r24, 0xFF	; 255
 590:	eb cf       	rjmp	.-42     	; 0x568 <main+0xca>
 592:	29 83       	std	Y+1, r18	; 0x01
 594:	bb dd       	rcall	.-1162   	; 0x10c <getCapacitanceRounded>
 596:	e0 90 60 00 	lds	r14, 0x0060
 59a:	f0 90 61 00 	lds	r15, 0x0061
 59e:	e8 1a       	sub	r14, r24
 5a0:	f9 0a       	sbc	r15, r25
 5a2:	29 81       	ldd	r18, Y+1	; 0x01
 5a4:	3e ec       	ldi	r19, 0xCE	; 206
 5a6:	e3 16       	cp	r14, r19
 5a8:	3f ef       	ldi	r19, 0xFF	; 255
 5aa:	f3 06       	cpc	r15, r19
 5ac:	cc f4       	brge	.+50     	; 0x5e0 <main+0x142>
 5ae:	11 11       	cpse	r17, r1
 5b0:	73 c0       	rjmp	.+230    	; 0x698 <main+0x1fa>
 5b2:	89 e0       	ldi	r24, 0x09	; 9
 5b4:	52 dd       	rcall	.-1372   	; 0x5a <chirp>
 5b6:	8f e6       	ldi	r24, 0x6F	; 111
 5b8:	91 e1       	ldi	r25, 0x11	; 17
 5ba:	e1 e0       	ldi	r30, 0x01	; 1
 5bc:	81 50       	subi	r24, 0x01	; 1
 5be:	90 40       	sbci	r25, 0x00	; 0
 5c0:	e0 40       	sbci	r30, 0x00	; 0
 5c2:	e1 f7       	brne	.-8      	; 0x5bc <main+0x11e>
 5c4:	00 c0       	rjmp	.+0      	; 0x5c6 <main+0x128>
 5c6:	00 00       	nop
 5c8:	81 e0       	ldi	r24, 0x01	; 1
 5ca:	47 dd       	rcall	.-1394   	; 0x5a <chirp>
 5cc:	83 ed       	ldi	r24, 0xD3	; 211
 5ce:	90 e3       	ldi	r25, 0x30	; 48
 5d0:	01 97       	sbiw	r24, 0x01	; 1
 5d2:	f1 f7       	brne	.-4      	; 0x5d0 <main+0x132>
 5d4:	00 c0       	rjmp	.+0      	; 0x5d6 <main+0x138>
 5d6:	00 00       	nop
 5d8:	81 e0       	ldi	r24, 0x01	; 1
 5da:	3f dd       	rcall	.-1410   	; 0x5a <chirp>
 5dc:	29 81       	ldd	r18, Y+1	; 0x01
 5de:	5c c0       	rjmp	.+184    	; 0x698 <main+0x1fa>
 5e0:	9e ec       	ldi	r25, 0xCE	; 206
 5e2:	e9 16       	cp	r14, r25
 5e4:	9f ef       	ldi	r25, 0xFF	; 255
 5e6:	f9 06       	cpc	r15, r25
 5e8:	79 f4       	brne	.+30     	; 0x608 <main+0x16a>
 5ea:	21 30       	cpi	r18, 0x01	; 1
 5ec:	09 f4       	brne	.+2      	; 0x5f0 <main+0x152>
 5ee:	b5 cf       	rjmp	.-150    	; 0x55a <main+0xbc>
 5f0:	81 b5       	in	r24, 0x21	; 33
 5f2:	8d 7f       	andi	r24, 0xFD	; 253
 5f4:	81 bd       	out	0x21, r24	; 33
 5f6:	81 b5       	in	r24, 0x21	; 33
 5f8:	8b 7f       	andi	r24, 0xFB	; 251
 5fa:	81 bd       	out	0x21, r24	; 33
 5fc:	81 b5       	in	r24, 0x21	; 33
 5fe:	81 62       	ori	r24, 0x21	; 33
 600:	81 bd       	out	0x21, r24	; 33
 602:	01 ee       	ldi	r16, 0xE1	; 225
 604:	21 e0       	ldi	r18, 0x01	; 1
 606:	af cf       	rjmp	.-162    	; 0x566 <main+0xc8>
 608:	29 83       	std	Y+1, r18	; 0x01
 60a:	e0 dd       	rcall	.-1088   	; 0x1cc <getLight>
 60c:	80 91 63 00 	lds	r24, 0x0063
 610:	90 91 64 00 	lds	r25, 0x0064
 614:	29 81       	ldd	r18, Y+1	; 0x01
 616:	8a 3f       	cpi	r24, 0xFA	; 250
 618:	9f 4f       	sbci	r25, 0xFF	; 255
 61a:	18 f4       	brcc	.+6      	; 0x622 <main+0x184>
 61c:	83 e0       	ldi	r24, 0x03	; 3
 61e:	1d dd       	rcall	.-1478   	; 0x5a <chirp>
 620:	29 81       	ldd	r18, Y+1	; 0x01
 622:	c7 01       	movw	r24, r14
 624:	c1 96       	adiw	r24, 0x31	; 49
 626:	4d 97       	sbiw	r24, 0x1d	; 29
 628:	78 f4       	brcc	.+30     	; 0x648 <main+0x1aa>
 62a:	22 30       	cpi	r18, 0x02	; 2
 62c:	09 f4       	brne	.+2      	; 0x630 <main+0x192>
 62e:	97 cf       	rjmp	.-210    	; 0x55e <main+0xc0>
 630:	81 b5       	in	r24, 0x21	; 33
 632:	8d 7f       	andi	r24, 0xFD	; 253
 634:	81 bd       	out	0x21, r24	; 33
 636:	81 b5       	in	r24, 0x21	; 33
 638:	8b 7f       	andi	r24, 0xFB	; 251
 63a:	81 bd       	out	0x21, r24	; 33
 63c:	81 b5       	in	r24, 0x21	; 33
 63e:	81 62       	ori	r24, 0x21	; 33
 640:	81 bd       	out	0x21, r24	; 33
 642:	05 e2       	ldi	r16, 0x25	; 37
 644:	22 e0       	ldi	r18, 0x02	; 2
 646:	8e cf       	rjmp	.-228    	; 0x564 <main+0xc6>
 648:	c7 01       	movw	r24, r14
 64a:	43 96       	adiw	r24, 0x13	; 19
 64c:	0e 97       	sbiw	r24, 0x0e	; 14
 64e:	78 f4       	brcc	.+30     	; 0x66e <main+0x1d0>
 650:	23 30       	cpi	r18, 0x03	; 3
 652:	09 f4       	brne	.+2      	; 0x656 <main+0x1b8>
 654:	86 cf       	rjmp	.-244    	; 0x562 <main+0xc4>
 656:	81 b5       	in	r24, 0x21	; 33
 658:	8d 7f       	andi	r24, 0xFD	; 253
 65a:	81 bd       	out	0x21, r24	; 33
 65c:	81 b5       	in	r24, 0x21	; 33
 65e:	8b 7f       	andi	r24, 0xFB	; 251
 660:	81 bd       	out	0x21, r24	; 33
 662:	81 b5       	in	r24, 0x21	; 33
 664:	81 62       	ori	r24, 0x21	; 33
 666:	81 bd       	out	0x21, r24	; 33
 668:	01 e0       	ldi	r16, 0x01	; 1
 66a:	23 e0       	ldi	r18, 0x03	; 3
 66c:	7b cf       	rjmp	.-266    	; 0x564 <main+0xc6>
 66e:	fb ef       	ldi	r31, 0xFB	; 251
 670:	ef 16       	cp	r14, r31
 672:	ff ef       	ldi	r31, 0xFF	; 255
 674:	ff 06       	cpc	r15, r31
 676:	0c f4       	brge	.+2      	; 0x67a <main+0x1dc>
 678:	75 cf       	rjmp	.-278    	; 0x564 <main+0xc6>
 67a:	24 30       	cpi	r18, 0x04	; 4
 67c:	09 f4       	brne	.+2      	; 0x680 <main+0x1e2>
 67e:	71 cf       	rjmp	.-286    	; 0x562 <main+0xc4>
 680:	81 b5       	in	r24, 0x21	; 33
 682:	8f 7d       	andi	r24, 0xDF	; 223
 684:	81 bd       	out	0x21, r24	; 33
 686:	81 b5       	in	r24, 0x21	; 33
 688:	8e 7f       	andi	r24, 0xFE	; 254
 68a:	81 bd       	out	0x21, r24	; 33
 68c:	81 b5       	in	r24, 0x21	; 33
 68e:	86 60       	ori	r24, 0x06	; 6
 690:	81 bd       	out	0x21, r24	; 33
 692:	01 e0       	ldi	r16, 0x01	; 1
 694:	24 e0       	ldi	r18, 0x04	; 4
 696:	66 cf       	rjmp	.-308    	; 0x564 <main+0xc6>
 698:	11 e0       	ldi	r17, 0x01	; 1
 69a:	a7 cf       	rjmp	.-178    	; 0x5ea <main+0x14c>

0000069c <__eerd_byte_tn44>:
 69c:	e1 99       	sbic	0x1c, 1	; 28
 69e:	fe cf       	rjmp	.-4      	; 0x69c <__eerd_byte_tn44>
 6a0:	1f ba       	out	0x1f, r1	; 31
 6a2:	8e bb       	out	0x1e, r24	; 30
 6a4:	e0 9a       	sbi	0x1c, 0	; 28
 6a6:	99 27       	eor	r25, r25
 6a8:	8d b3       	in	r24, 0x1d	; 29
 6aa:	08 95       	ret

000006ac <__eewr_byte_tn44>:
 6ac:	26 2f       	mov	r18, r22

000006ae <__eewr_r18_tn44>:
 6ae:	e1 99       	sbic	0x1c, 1	; 28
 6b0:	fe cf       	rjmp	.-4      	; 0x6ae <__eewr_r18_tn44>
 6b2:	1c ba       	out	0x1c, r1	; 28
 6b4:	1f ba       	out	0x1f, r1	; 31
 6b6:	8e bb       	out	0x1e, r24	; 30
 6b8:	2d bb       	out	0x1d, r18	; 29
 6ba:	0f b6       	in	r0, 0x3f	; 63
 6bc:	f8 94       	cli
 6be:	e2 9a       	sbi	0x1c, 2	; 28
 6c0:	e1 9a       	sbi	0x1c, 1	; 28
 6c2:	0f be       	out	0x3f, r0	; 63
 6c4:	01 96       	adiw	r24, 0x01	; 1
 6c6:	08 95       	ret

000006c8 <_exit>:
 6c8:	f8 94       	cli

000006ca <__stop_program>:
 6ca:	ff cf       	rjmp	.-2      	; 0x6ca <__stop_program>
